target datalayout = "e-m:e-p270:32:32-p271:32:32-p272:64:64-i64:64-i128:128-f80:128-n8:16:32:64-S128"
target triple = "x86_64-pc-linux-gnu"

%struct.Abc_Ntk_t_ = type { i32, i32, ptr, ptr, ptr, ptr, ptr, ptr, ptr, ptr, ptr, ptr, ptr, [11 x i32], i32, i32, i32, i32, ptr, i32, ptr, ptr, i32, i32, i32, double, i32, %struct.Vec_Int_t_, ptr, ptr, ptr, ptr, ptr, float, i32, ptr, ptr, ptr, ptr, ptr, ptr, ptr, ptr, ptr, ptr, ptr, ptr, ptr, ptr, ptr, ptr, ptr, ptr, ptr, ptr, ptr }
%struct.Vec_Int_t_ = type { i32, i32, ptr }
%struct.Vec_Ptr_t_ = type { i32, i32, ptr }
%struct.Abc_Obj_t_ = type { ptr, ptr, i32, i32, %struct.Vec_Int_t_, %struct.Vec_Int_t_, %union.anon, %union.anon.0 }
%union.anon = type { ptr }
%union.anon.0 = type { ptr }

@stdout = external global ptr, align 8
@.str.29 = private unnamed_addr constant [2 x i8] c"?\00", align 1
@.str.30 = private unnamed_addr constant [41 x i8] c"Abc_NtkDup(): Network check has failed.\0A\00", align 1

; Function Attrs: nounwind uwtable
define internal void @Vec_PtrFree(ptr noundef %0) #0 {
  %2 = alloca ptr, align 8
  store ptr %0, ptr %2, align 8
  %3 = load ptr, ptr %2, align 8
  %4 = getelementptr inbounds %struct.Vec_Ptr_t_, ptr %3, i32 0, i32 2
  %5 = load ptr, ptr %4, align 8
  %6 = icmp ne ptr %5, null
  br i1 %6, label %7, label %13

7:                                                ; preds = %1
  %8 = load ptr, ptr %2, align 8
  %9 = getelementptr inbounds %struct.Vec_Ptr_t_, ptr %8, i32 0, i32 2
  %10 = load ptr, ptr %9, align 8
  call void @free(ptr noundef %10) #11
  %11 = load ptr, ptr %2, align 8
  %12 = getelementptr inbounds %struct.Vec_Ptr_t_, ptr %11, i32 0, i32 2
  store ptr null, ptr %12, align 8
  br label %14

13:                                               ; preds = %1
  br label %14

14:                                               ; preds = %13, %7
  %15 = load ptr, ptr %2, align 8
  %16 = icmp ne ptr %15, null
  br i1 %16, label %17, label %19

17:                                               ; preds = %14
  %18 = load ptr, ptr %2, align 8
  call void @free(ptr noundef %18) #11
  store ptr null, ptr %2, align 8
  br label %20

19:                                               ; preds = %14
  br label %20

20:                                               ; preds = %19, %17
  ret void
}

; Function Attrs: nounwind uwtable
define internal ptr @Abc_ObjFanin(ptr noundef %0, i32 noundef %1) #0 {
  %3 = alloca ptr, align 8
  %4 = alloca i32, align 4
  store ptr %0, ptr %3, align 8
  store i32 %1, ptr %4, align 4
  %5 = load ptr, ptr %3, align 8
  %6 = getelementptr inbounds %struct.Abc_Obj_t_, ptr %5, i32 0, i32 0
  %7 = load ptr, ptr %6, align 8
  %8 = getelementptr inbounds %struct.Abc_Ntk_t_, ptr %7, i32 0, i32 5
  %9 = load ptr, ptr %8, align 8
  %10 = getelementptr inbounds %struct.Vec_Ptr_t_, ptr %9, i32 0, i32 2
  %11 = load ptr, ptr %10, align 8
  %12 = load ptr, ptr %3, align 8
  %13 = getelementptr inbounds %struct.Abc_Obj_t_, ptr %12, i32 0, i32 4
  %14 = getelementptr inbounds %struct.Vec_Int_t_, ptr %13, i32 0, i32 2
  %15 = load ptr, ptr %14, align 8
  %16 = load i32, ptr %4, align 4
  %17 = sext i32 %16 to i64
  %18 = getelementptr inbounds i32, ptr %15, i64 %17
  %19 = load i32, ptr %18, align 4
  %20 = sext i32 %19 to i64
  %21 = getelementptr inbounds ptr, ptr %11, i64 %20
  %22 = load ptr, ptr %21, align 8
  ret ptr %22
}

; Function Attrs: nounwind uwtable
define internal i32 @Abc_ObjFaninNum(ptr noundef %0) #0 {
  %2 = alloca ptr, align 8
  store ptr %0, ptr %2, align 8
  %3 = load ptr, ptr %2, align 8
  %4 = getelementptr inbounds %struct.Abc_Obj_t_, ptr %3, i32 0, i32 4
  %5 = getelementptr inbounds %struct.Vec_Int_t_, ptr %4, i32 0, i32 1
  %6 = load i32, ptr %5, align 4
  ret i32 %6
}

; Function Attrs: nounwind uwtable
define internal ptr @Vec_PtrEntry(ptr noundef %0, i32 noundef %1) #0 {
  %3 = alloca ptr, align 8
  %4 = alloca i32, align 4
  store ptr %0, ptr %3, align 8
  store i32 %1, ptr %4, align 4
  %5 = load ptr, ptr %3, align 8
  %6 = getelementptr inbounds %struct.Vec_Ptr_t_, ptr %5, i32 0, i32 2
  %7 = load ptr, ptr %6, align 8
  %8 = load i32, ptr %4, align 4
  %9 = sext i32 %8 to i64
  %10 = getelementptr inbounds ptr, ptr %7, i64 %9
  %11 = load ptr, ptr %10, align 8
  ret ptr %11
}

; Function Attrs: nounwind uwtable
define internal i32 @Vec_PtrSize(ptr noundef %0) #0 {
  %2 = alloca ptr, align 8
  store ptr %0, ptr %2, align 8
  %3 = load ptr, ptr %2, align 8
  %4 = getelementptr inbounds %struct.Vec_Ptr_t_, ptr %3, i32 0, i32 1
  %5 = load i32, ptr %4, align 4
  ret i32 %5
}

; Function Attrs: nounwind uwtable
define ptr @Abc_NtkSplitSop(ptr noundef %0, i32 noundef %1, i32 noundef %2) #0 {
  %4 = alloca ptr, align 8
  %5 = alloca ptr, align 8
  %6 = alloca i32, align 4
  %7 = alloca i32, align 4
  %8 = alloca ptr, align 8
  %9 = alloca ptr, align 8
  %10 = alloca ptr, align 8
  %11 = alloca ptr, align 8
  %12 = alloca ptr, align 8
  %13 = alloca ptr, align 8
  %14 = alloca i32, align 4
  %15 = alloca i32, align 4
  %16 = alloca i32, align 4
  %17 = alloca i32, align 4
  %18 = alloca i32, align 4
  %19 = alloca i32, align 4
  %20 = alloca ptr, align 8
  %21 = alloca ptr, align 8
  %22 = alloca ptr, align 8
  %23 = alloca i8, align 1
  store ptr %0, ptr %5, align 8
  store i32 %1, ptr %6, align 4
  store i32 %2, ptr %7, align 4
  %24 = load ptr, ptr %5, align 8
  %25 = icmp eq ptr %24, null
  br i1 %25, label %26, label %27

26:                                               ; preds = %3
  store ptr null, ptr %4, align 8
  br label %211

27:                                               ; preds = %3
  %28 = load ptr, ptr %5, align 8
  %29 = load ptr, ptr %5, align 8
  %30 = getelementptr inbounds %struct.Abc_Ntk_t_, ptr %29, i32 0, i32 0
  %31 = load i32, ptr %30, align 8
  %32 = load ptr, ptr %5, align 8
  %33 = getelementptr inbounds %struct.Abc_Ntk_t_, ptr %32, i32 0, i32 1
  %34 = load i32, ptr %33, align 4
  %35 = call ptr @Abc_NtkStartFrom(ptr noundef %28, i32 noundef %31, i32 noundef %34)
  store ptr %35, ptr %9, align 8
  %36 = load ptr, ptr %5, align 8
  %37 = call ptr @Abc_NtkDfs(ptr noundef %36, i32 noundef 0)
  store ptr %37, ptr %8, align 8
  store i32 0, ptr %14, align 4
  br label %38

38:                                               ; preds = %193, %27
  %39 = load i32, ptr %14, align 4
  %40 = load ptr, ptr %8, align 8
  %41 = call i32 @Vec_PtrSize(ptr noundef %40)
  %42 = icmp slt i32 %39, %41
  br i1 %42, label %43, label %47

43:                                               ; preds = %38
  %44 = load ptr, ptr %8, align 8
  %45 = load i32, ptr %14, align 4
  %46 = call ptr @Vec_PtrEntry(ptr noundef %44, i32 noundef %45)
  store ptr %46, ptr %10, align 8
  br label %47

47:                                               ; preds = %43, %38
  %48 = phi i1 [ false, %38 ], [ true, %43 ]
  br i1 %48, label %49, label %196

49:                                               ; preds = %47
  %50 = load ptr, ptr %9, align 8
  %51 = load ptr, ptr %10, align 8
  %52 = call ptr @Abc_NtkDupObj(ptr noundef %50, ptr noundef %51, i32 noundef 0)
  store ptr %52, ptr %13, align 8
  %53 = load ptr, ptr %10, align 8
  %54 = getelementptr inbounds %struct.Abc_Obj_t_, ptr %53, i32 0, i32 6
  %55 = load ptr, ptr %54, align 8
  %56 = call i32 @Abc_SopGetCubeNum(ptr noundef %55)
  store i32 %56, ptr %17, align 4
  %57 = load i32, ptr %17, align 4
  %58 = load i32, ptr %6, align 4
  %59 = icmp sle i32 %57, %58
  br i1 %59, label %60, label %83

60:                                               ; preds = %49
  store i32 0, ptr %15, align 4
  br label %61

61:                                               ; preds = %79, %60
  %62 = load i32, ptr %15, align 4
  %63 = load ptr, ptr %10, align 8
  %64 = call i32 @Abc_ObjFaninNum(ptr noundef %63)
  %65 = icmp slt i32 %62, %64
  br i1 %65, label %66, label %70

66:                                               ; preds = %61
  %67 = load ptr, ptr %10, align 8
  %68 = load i32, ptr %15, align 4
  %69 = call ptr @Abc_ObjFanin(ptr noundef %67, i32 noundef %68)
  store ptr %69, ptr %11, align 8
  br label %70

70:                                               ; preds = %66, %61
  %71 = phi i1 [ false, %61 ], [ true, %66 ]
  br i1 %71, label %72, label %82

72:                                               ; preds = %70
  %73 = load ptr, ptr %10, align 8
  %74 = getelementptr inbounds %struct.Abc_Obj_t_, ptr %73, i32 0, i32 7
  %75 = load ptr, ptr %74, align 8
  %76 = load ptr, ptr %11, align 8
  %77 = getelementptr inbounds %struct.Abc_Obj_t_, ptr %76, i32 0, i32 7
  %78 = load ptr, ptr %77, align 8
  call void @Abc_ObjAddFanin(ptr noundef %75, ptr noundef %78)
  br label %79

79:                                               ; preds = %72
  %80 = load i32, ptr %15, align 4
  %81 = add nsw i32 %80, 1
  store i32 %81, ptr %15, align 4
  br label %61, !llvm.loop !138

82:                                               ; preds = %70
  br label %193

83:                                               ; preds = %49
  %84 = load i32, ptr %17, align 4
  %85 = load i32, ptr %6, align 4
  %86 = sdiv i32 %84, %85
  %87 = load i32, ptr %17, align 4
  %88 = load i32, ptr %6, align 4
  %89 = srem i32 %87, %88
  %90 = icmp sgt i32 %89, 0
  %91 = zext i1 %90 to i32
  %92 = add nsw i32 %86, %91
  store i32 %92, ptr %19, align 4
  %93 = load ptr, ptr %13, align 8
  %94 = getelementptr inbounds %struct.Abc_Obj_t_, ptr %93, i32 0, i32 6
  %95 = load ptr, ptr %94, align 8
  store ptr %95, ptr %20, align 8
  %96 = load ptr, ptr %9, align 8
  %97 = getelementptr inbounds %struct.Abc_Ntk_t_, ptr %96, i32 0, i32 30
  %98 = load ptr, ptr %97, align 8
  %99 = load i32, ptr %19, align 4
  %100 = call ptr @Abc_SopCreateOr(ptr noundef %98, i32 noundef %99, ptr noundef null)
  %101 = load ptr, ptr %13, align 8
  %102 = getelementptr inbounds %struct.Abc_Obj_t_, ptr %101, i32 0, i32 6
  store ptr %100, ptr %102, align 8
  %103 = load ptr, ptr %20, align 8
  %104 = call i32 @Abc_SopIsComplement(ptr noundef %103)
  %105 = icmp ne i32 %104, 0
  br i1 %105, label %106, label %111

106:                                              ; preds = %83
  %107 = load ptr, ptr %20, align 8
  call void @Abc_SopComplement(ptr noundef %107)
  %108 = load ptr, ptr %13, align 8
  %109 = getelementptr inbounds %struct.Abc_Obj_t_, ptr %108, i32 0, i32 6
  %110 = load ptr, ptr %109, align 8
  call void @Abc_SopComplement(ptr noundef %110)
  br label %111

111:                                              ; preds = %106, %83
  %112 = load ptr, ptr %10, align 8
  %113 = getelementptr inbounds %struct.Abc_Obj_t_, ptr %112, i32 0, i32 6
  %114 = load ptr, ptr %113, align 8
  store ptr %114, ptr %22, align 8
  %115 = load ptr, ptr %10, align 8
  %116 = getelementptr inbounds %struct.Abc_Obj_t_, ptr %115, i32 0, i32 6
  store ptr @.str.29, ptr %116, align 8
  store i32 0, ptr %16, align 4
  br label %117

117:                                              ; preds = %183, %111
  %118 = load i32, ptr %16, align 4
  %119 = load i32, ptr %19, align 4
  %120 = icmp slt i32 %118, %119
  br i1 %120, label %121, label %186

121:                                              ; preds = %117
  %122 = load ptr, ptr %9, align 8
  %123 = load ptr, ptr %10, align 8
  %124 = call ptr @Abc_NtkDupObj(ptr noundef %122, ptr noundef %123, i32 noundef 0)
  store ptr %124, ptr %12, align 8
  %125 = load ptr, ptr %13, align 8
  %126 = load ptr, ptr %12, align 8
  call void @Abc_ObjAddFanin(ptr noundef %125, ptr noundef %126)
  store i32 0, ptr %15, align 4
  br label %127

127:                                              ; preds = %145, %121
  %128 = load i32, ptr %15, align 4
  %129 = load ptr, ptr %10, align 8
  %130 = call i32 @Abc_ObjFaninNum(ptr noundef %129)
  %131 = icmp slt i32 %128, %130
  br i1 %131, label %132, label %136

132:                                              ; preds = %127
  %133 = load ptr, ptr %10, align 8
  %134 = load i32, ptr %15, align 4
  %135 = call ptr @Abc_ObjFanin(ptr noundef %133, i32 noundef %134)
  store ptr %135, ptr %11, align 8
  br label %136

136:                                              ; preds = %132, %127
  %137 = phi i1 [ false, %127 ], [ true, %132 ]
  br i1 %137, label %138, label %148

138:                                              ; preds = %136
  %139 = load ptr, ptr %10, align 8
  %140 = getelementptr inbounds %struct.Abc_Obj_t_, ptr %139, i32 0, i32 7
  %141 = load ptr, ptr %140, align 8
  %142 = load ptr, ptr %11, align 8
  %143 = getelementptr inbounds %struct.Abc_Obj_t_, ptr %142, i32 0, i32 7
  %144 = load ptr, ptr %143, align 8
  call void @Abc_ObjAddFanin(ptr noundef %141, ptr noundef %144)
  br label %145

145:                                              ; preds = %138
  %146 = load i32, ptr %15, align 4
  %147 = add nsw i32 %146, 1
  store i32 %147, ptr %15, align 4
  br label %127, !llvm.loop !139

148:                                              ; preds = %136
  %149 = load i32, ptr %16, align 4
  %150 = load i32, ptr %17, align 4
  %151 = load i32, ptr %6, align 4
  %152 = sdiv i32 %150, %151
  %153 = icmp slt i32 %149, %152
  br i1 %153, label %154, label %156

154:                                              ; preds = %148
  %155 = load i32, ptr %6, align 4
  br label %160

156:                                              ; preds = %148
  %157 = load i32, ptr %17, align 4
  %158 = load i32, ptr %6, align 4
  %159 = srem i32 %157, %158
  br label %160

160:                                              ; preds = %156, %154
  %161 = phi i32 [ %155, %154 ], [ %159, %156 ]
  store i32 %161, ptr %18, align 4
  %162 = load ptr, ptr %20, align 8
  %163 = load ptr, ptr %10, align 8
  %164 = call i32 @Abc_ObjFaninNum(ptr noundef %163)
  %165 = add nsw i32 %164, 3
  %166 = load i32, ptr %18, align 4
  %167 = mul nsw i32 %165, %166
  %168 = sext i32 %167 to i64
  %169 = getelementptr inbounds i8, ptr %162, i64 %168
  store ptr %169, ptr %21, align 8
  %170 = load ptr, ptr %21, align 8
  %171 = load i8, ptr %170, align 1
  store i8 %171, ptr %23, align 1
  %172 = load ptr, ptr %21, align 8
  store i8 0, ptr %172, align 1
  %173 = load ptr, ptr %9, align 8
  %174 = getelementptr inbounds %struct.Abc_Ntk_t_, ptr %173, i32 0, i32 30
  %175 = load ptr, ptr %174, align 8
  %176 = load ptr, ptr %20, align 8
  %177 = call ptr @Abc_SopRegister(ptr noundef %175, ptr noundef %176)
  %178 = load ptr, ptr %12, align 8
  %179 = getelementptr inbounds %struct.Abc_Obj_t_, ptr %178, i32 0, i32 6
  store ptr %177, ptr %179, align 8
  %180 = load i8, ptr %23, align 1
  %181 = load ptr, ptr %21, align 8
  store i8 %180, ptr %181, align 1
  %182 = load ptr, ptr %21, align 8
  store ptr %182, ptr %20, align 8
  br label %183

183:                                              ; preds = %160
  %184 = load i32, ptr %16, align 4
  %185 = add nsw i32 %184, 1
  store i32 %185, ptr %16, align 4
  br label %117, !llvm.loop !140

186:                                              ; preds = %117
  %187 = load ptr, ptr %22, align 8
  %188 = load ptr, ptr %10, align 8
  %189 = getelementptr inbounds %struct.Abc_Obj_t_, ptr %188, i32 0, i32 6
  store ptr %187, ptr %189, align 8
  %190 = load ptr, ptr %13, align 8
  %191 = load ptr, ptr %10, align 8
  %192 = getelementptr inbounds %struct.Abc_Obj_t_, ptr %191, i32 0, i32 7
  store ptr %190, ptr %192, align 8
  br label %193

193:                                              ; preds = %186, %82
  %194 = load i32, ptr %14, align 4
  %195 = add nsw i32 %194, 1
  store i32 %195, ptr %14, align 4
  br label %38, !llvm.loop !141

196:                                              ; preds = %47
  %197 = load ptr, ptr %8, align 8
  call void @Vec_PtrFree(ptr noundef %197)
  %198 = load ptr, ptr %5, align 8
  %199 = load ptr, ptr %9, align 8
  call void @Abc_NtkFinalize(ptr noundef %198, ptr noundef %199)
  %200 = load ptr, ptr %9, align 8
  %201 = call i32 @Abc_NtkCheck(ptr noundef %200)
  %202 = icmp ne i32 %201, 0
  br i1 %202, label %206, label %203

203:                                              ; preds = %196
  %204 = load ptr, ptr @stdout, align 8
  %205 = call i32 (ptr, ptr, ...) @fprintf(ptr noundef %204, ptr noundef @.str.30) #11
  br label %206

206:                                              ; preds = %203, %196
  %207 = load ptr, ptr %9, align 8
  %208 = load ptr, ptr %5, align 8
  %209 = getelementptr inbounds %struct.Abc_Ntk_t_, ptr %208, i32 0, i32 43
  store ptr %207, ptr %209, align 8
  %210 = load ptr, ptr %9, align 8
  store ptr %210, ptr %4, align 8
  br label %211

211:                                              ; preds = %206, %26
  %212 = load ptr, ptr %4, align 8
  ret ptr %212
}