; Function Attrs: nounwind uwtable
define ptr @Abc_NtkSplitSop(ptr noundef %0, i32 noundef %1, i32 noundef %2) local_unnamed_addr #0 {
  %4 = icmp eq ptr %0, null
  br i1 %4, label %95, label %5

5:                                                ; preds = %3
  %6 = load i32, ptr %0, align 8
  %7 = getelementptr inbounds nuw i8, ptr %0, i64 4
  %8 = load i32, ptr %7, align 4
  %9 = tail call ptr @Abc_NtkStartFrom(ptr noundef nonnull %0, i32 noundef %6, i32 noundef %8) #28
  %10 = tail call ptr @Abc_NtkDfs(ptr noundef nonnull %0, i32 noundef 0) #28
  %11 = getelementptr i8, ptr %10, i64 4
  %.val90106 = load i32, ptr %11, align 4
  %12 = icmp sgt i32 %.val90106, 0
  br i1 %12, label %.lr.ph109, label %.critedge

.lr.ph109:                                        ; preds = %5
  %13 = getelementptr i8, ptr %10, i64 8
  %14 = getelementptr inbounds nuw i8, ptr %9, i64 256
  br label %15

15:                                               ; preds = %.lr.ph109, %.critedge2
  %indvars.iv115 = phi i64 [ 0, %.lr.ph109 ], [ %indvars.iv.next116, %.critedge2 ]
  %.val = load ptr, ptr %13, align 8
  %16 = getelementptr inbounds nuw ptr, ptr %.val, i64 %indvars.iv115
  %17 = load ptr, ptr %16, align 8
  %18 = tail call ptr @Abc_NtkDupObj(ptr noundef %9, ptr noundef %17, i32 noundef 0) #28
  %19 = getelementptr inbounds nuw i8, ptr %17, i64 56
  %20 = load ptr, ptr %19, align 8
  %21 = tail call i32 @Abc_SopGetCubeNum(ptr noundef %20) #28
  %.not88 = icmp sgt i32 %21, %1
  br i1 %.not88, label %39, label %.preheader

.preheader:                                       ; preds = %15
  %22 = getelementptr i8, ptr %17, i64 28
  %.val9398 = load i32, ptr %22, align 4
  %23 = icmp sgt i32 %.val9398, 0
  br i1 %23, label %.lr.ph, label %.critedge2

.lr.ph:                                           ; preds = %.preheader
  %24 = getelementptr i8, ptr %17, i64 32
  %25 = getelementptr inbounds nuw i8, ptr %17, i64 64
  br label %26

26:                                               ; preds = %.lr.ph, %26
  %indvars.iv = phi i64 [ 0, %.lr.ph ], [ %indvars.iv.next, %26 ]
  %.val96 = load ptr, ptr %17, align 8
  %.val97 = load ptr, ptr %24, align 8
  %27 = getelementptr i8, ptr %.val96, i64 32
  %.val96.val = load ptr, ptr %27, align 8
  %28 = getelementptr i8, ptr %.val96.val, i64 8
  %.val96.val.val = load ptr, ptr %28, align 8
  %29 = getelementptr inbounds nuw i32, ptr %.val97, i64 %indvars.iv
  %30 = load i32, ptr %29, align 4
  %31 = sext i32 %30 to i64
  %32 = getelementptr inbounds ptr, ptr %.val96.val.val, i64 %31
  %33 = load ptr, ptr %32, align 8
  %34 = load ptr, ptr %25, align 8
  %35 = getelementptr inbounds nuw i8, ptr %33, i64 64
  %36 = load ptr, ptr %35, align 8
  tail call void @Abc_ObjAddFanin(ptr noundef %34, ptr noundef %36) #28
  %indvars.iv.next = add nuw nsw i64 %indvars.iv, 1
  %.val93 = load i32, ptr %22, align 4
  %37 = sext i32 %.val93 to i64
  %38 = icmp slt i64 %indvars.iv.next, %37
  br i1 %38, label %26, label %.critedge2, !llvm.loop !135

39:                                               ; preds = %15
  %40 = sdiv i32 %21, %1
  %41 = srem i32 %21, %1
  %42 = icmp sgt i32 %41, 0
  %43 = zext i1 %42 to i32
  %44 = add nsw i32 %40, %43
  %45 = getelementptr inbounds nuw i8, ptr %18, i64 56
  %46 = load ptr, ptr %45, align 8
  %47 = load ptr, ptr %14, align 8
  %48 = tail call ptr @Abc_SopCreateOr(ptr noundef %47, i32 noundef %44, ptr noundef null) #28
  store ptr %48, ptr %45, align 8
  %49 = tail call i32 @Abc_SopIsComplement(ptr noundef %46) #28
  %.not89 = icmp eq i32 %49, 0
  br i1 %.not89, label %52, label %50

50:                                               ; preds = %39
  tail call void @Abc_SopComplement(ptr noundef %46) #28
  %51 = load ptr, ptr %45, align 8
  tail call void @Abc_SopComplement(ptr noundef %51) #28
  br label %52

52:                                               ; preds = %50, %39
  %53 = load ptr, ptr %19, align 8
  store ptr @.str.29, ptr %19, align 8
  %54 = icmp sgt i32 %44, 0
  br i1 %54, label %.lr.ph105, label %._crit_edge

.lr.ph105:                                        ; preds = %52
  %55 = getelementptr i8, ptr %17, i64 28
  %56 = getelementptr i8, ptr %17, i64 32
  %57 = getelementptr inbounds nuw i8, ptr %17, i64 64
  br label %58

58:                                               ; preds = %.lr.ph105, %.critedge4
  %.082104 = phi ptr [ %46, %.lr.ph105 ], [ %77, %.critedge4 ]
  %.084103 = phi i32 [ 0, %.lr.ph105 ], [ %82, %.critedge4 ]
  %59 = tail call ptr @Abc_NtkDupObj(ptr noundef nonnull %9, ptr noundef nonnull %17, i32 noundef 0) #28
  tail call void @Abc_ObjAddFanin(ptr noundef %18, ptr noundef %59) #28
  %.val92100 = load i32, ptr %55, align 4
  %60 = icmp sgt i32 %.val92100, 0
  br i1 %60, label %.lr.ph102, label %.critedge4

.lr.ph102:                                        ; preds = %58, %.lr.ph102
  %indvars.iv112 = phi i64 [ %indvars.iv.next113, %.lr.ph102 ], [ 0, %58 ]
  %.val94 = load ptr, ptr %17, align 8
  %.val95 = load ptr, ptr %56, align 8
  %61 = getelementptr i8, ptr %.val94, i64 32
  %.val94.val = load ptr, ptr %61, align 8
  %62 = getelementptr i8, ptr %.val94.val, i64 8
  %.val94.val.val = load ptr, ptr %62, align 8
  %63 = getelementptr inbounds nuw i32, ptr %.val95, i64 %indvars.iv112
  %64 = load i32, ptr %63, align 4
  %65 = sext i32 %64 to i64
  %66 = getelementptr inbounds ptr, ptr %.val94.val.val, i64 %65
  %67 = load ptr, ptr %66, align 8
  %68 = load ptr, ptr %57, align 8
  %69 = getelementptr inbounds nuw i8, ptr %67, i64 64
  %70 = load ptr, ptr %69, align 8
  tail call void @Abc_ObjAddFanin(ptr noundef %68, ptr noundef %70) #28
  %indvars.iv.next113 = add nuw nsw i64 %indvars.iv112, 1
  %.val92 = load i32, ptr %55, align 4
  %71 = sext i32 %.val92 to i64
  %72 = icmp slt i64 %indvars.iv.next113, %71
  br i1 %72, label %.lr.ph102, label %.critedge4, !llvm.loop !136

.critedge4:                                       ; preds = %.lr.ph102, %58
  %.val92.lcssa = phi i32 [ %.val92100, %58 ], [ %.val92, %.lr.ph102 ]
  %73 = icmp slt i32 %.084103, %40
  %. = select i1 %73, i32 %1, i32 %41
  %74 = add nsw i32 %.val92.lcssa, 3
  %75 = mul nsw i32 %74, %.
  %76 = sext i32 %75 to i64
  %77 = getelementptr inbounds i8, ptr %.082104, i64 %76
  %78 = load i8, ptr %77, align 1
  store i8 0, ptr %77, align 1
  %79 = load ptr, ptr %14, align 8
  %80 = tail call ptr @Abc_SopRegister(ptr noundef %79, ptr noundef %.082104) #28
  %81 = getelementptr inbounds nuw i8, ptr %59, i64 56
  store ptr %80, ptr %81, align 8
  store i8 %78, ptr %77, align 1
  %82 = add nuw nsw i32 %.084103, 1
  %exitcond.not = icmp eq i32 %82, %44
  br i1 %exitcond.not, label %._crit_edge, label %58, !llvm.loop !137

._crit_edge:                                      ; preds = %.critedge4, %52
  store ptr %53, ptr %19, align 8
  %83 = getelementptr inbounds nuw i8, ptr %17, i64 64
  store ptr %18, ptr %83, align 8
  br label %.critedge2

.critedge2:                                       ; preds = %26, %.preheader, %._crit_edge
  %indvars.iv.next116 = add nuw nsw i64 %indvars.iv115, 1
  %.val90 = load i32, ptr %11, align 4
  %84 = sext i32 %.val90 to i64
  %85 = icmp slt i64 %indvars.iv.next116, %84
  br i1 %85, label %15, label %.critedge, !llvm.loop !138

.critedge:                                        ; preds = %.critedge2, %5
  %86 = getelementptr inbounds nuw i8, ptr %10, i64 8
  %87 = load ptr, ptr %86, align 8
  %.not.i = icmp eq ptr %87, null
  br i1 %.not.i, label %Vec_PtrFree.exit, label %88

88:                                               ; preds = %.critedge
  tail call void @free(ptr noundef nonnull %87) #28
  br label %Vec_PtrFree.exit

Vec_PtrFree.exit:                                 ; preds = %.critedge, %88
  tail call void @free(ptr noundef nonnull %10) #28
  tail call void @Abc_NtkFinalize(ptr noundef nonnull %0, ptr noundef %9) #28
  %89 = tail call i32 @Abc_NtkCheck(ptr noundef %9) #28
  %.not = icmp eq i32 %89, 0
  br i1 %.not, label %90, label %93

90:                                               ; preds = %Vec_PtrFree.exit
  %91 = load ptr, ptr @stdout, align 8
  %92 = tail call i64 @fwrite(ptr nonnull @.str.30, i64 40, i64 1, ptr %91)
  br label %93

93:                                               ; preds = %90, %Vec_PtrFree.exit
  %94 = getelementptr inbounds nuw i8, ptr %0, i64 352
  store ptr %9, ptr %94, align 8
  br label %95

95:                                               ; preds = %3, %93
  %.0 = phi ptr [ %9, %93 ], [ null, %3 ]
  ret ptr %.0
}